ARM GAS  C:\Users\NGGMLGM\AppData\Local\Temp\ccHulEIb.s 			page 1


   1              		.syntax unified
   2              		.cpu cortex-m3
   3              		.fpu softvfp
   4              		.eabi_attribute 20, 1
   5              		.eabi_attribute 21, 1
   6              		.eabi_attribute 23, 3
   7              		.eabi_attribute 24, 1
   8              		.eabi_attribute 25, 1
   9              		.eabi_attribute 26, 1
  10              		.eabi_attribute 30, 6
  11              		.eabi_attribute 34, 1
  12              		.eabi_attribute 18, 4
  13              		.thumb
  14              		.file	"comtest.c"
  15              		.text
  16              	.Ltext0:
  17              		.cfi_sections	.debug_frame
  18              		.bss
  19              		.align	2
  20              	xPort:
  21 0000 00000000 		.space	4
  22              		.align	2
  23              	uxBaseLED:
  24 0004 00000000 		.space	4
  25              		.align	2
  26              	uxRxLoops:
  27 0008 00000000 		.space	4
  28              		.section	.rodata
  29              		.align	2
  30              	.LC0:
  31 0000 434F4D54 		.ascii	"COMTx\000"
  31      7800
  32 0006 0000     		.align	2
  33              	.LC1:
  34 0008 434F4D52 		.ascii	"COMRx\000"
  34      7800
  35 000e 0000     		.section	.text.vAltStartComTestTasks,"ax",%progbits
  36              		.align	2
  37              		.global	vAltStartComTestTasks
  38              		.thumb
  39              		.thumb_func
  40              		.type	vAltStartComTestTasks, %function
  41              	vAltStartComTestTasks:
  42              	.LFB68:
  43              		.file 1 "..\\..\\Common\\Minimal\\comtest.c"
   1:..\..\Common\Minimal/comtest.c **** /*
   2:..\..\Common\Minimal/comtest.c ****     FreeRTOS V9.0.0rc2 - Copyright (C) 2016 Real Time Engineers Ltd.
   3:..\..\Common\Minimal/comtest.c ****     All rights reserved
   4:..\..\Common\Minimal/comtest.c **** 
   5:..\..\Common\Minimal/comtest.c ****     VISIT http://www.FreeRTOS.org TO ENSURE YOU ARE USING THE LATEST VERSION.
   6:..\..\Common\Minimal/comtest.c **** 
   7:..\..\Common\Minimal/comtest.c ****     This file is part of the FreeRTOS distribution.
   8:..\..\Common\Minimal/comtest.c **** 
   9:..\..\Common\Minimal/comtest.c ****     FreeRTOS is free software; you can redistribute it and/or modify it under
  10:..\..\Common\Minimal/comtest.c ****     the terms of the GNU General Public License (version 2) as published by the
  11:..\..\Common\Minimal/comtest.c ****     Free Software Foundation >>>> AND MODIFIED BY <<<< the FreeRTOS exception.
  12:..\..\Common\Minimal/comtest.c **** 
ARM GAS  C:\Users\NGGMLGM\AppData\Local\Temp\ccHulEIb.s 			page 2


  13:..\..\Common\Minimal/comtest.c ****     ***************************************************************************
  14:..\..\Common\Minimal/comtest.c ****     >>!   NOTE: The modification to the GPL is included to allow you to     !<<
  15:..\..\Common\Minimal/comtest.c ****     >>!   distribute a combined work that includes FreeRTOS without being   !<<
  16:..\..\Common\Minimal/comtest.c ****     >>!   obliged to provide the source code for proprietary components     !<<
  17:..\..\Common\Minimal/comtest.c ****     >>!   outside of the FreeRTOS kernel.                                   !<<
  18:..\..\Common\Minimal/comtest.c ****     ***************************************************************************
  19:..\..\Common\Minimal/comtest.c **** 
  20:..\..\Common\Minimal/comtest.c ****     FreeRTOS is distributed in the hope that it will be useful, but WITHOUT ANY
  21:..\..\Common\Minimal/comtest.c ****     WARRANTY; without even the implied warranty of MERCHANTABILITY or FITNESS
  22:..\..\Common\Minimal/comtest.c ****     FOR A PARTICULAR PURPOSE.  Full license text is available on the following
  23:..\..\Common\Minimal/comtest.c ****     link: http://www.freertos.org/a00114.html
  24:..\..\Common\Minimal/comtest.c **** 
  25:..\..\Common\Minimal/comtest.c ****     ***************************************************************************
  26:..\..\Common\Minimal/comtest.c ****      *                                                                       *
  27:..\..\Common\Minimal/comtest.c ****      *    FreeRTOS provides completely free yet professionally developed,    *
  28:..\..\Common\Minimal/comtest.c ****      *    robust, strictly quality controlled, supported, and cross          *
  29:..\..\Common\Minimal/comtest.c ****      *    platform software that is more than just the market leader, it     *
  30:..\..\Common\Minimal/comtest.c ****      *    is the industry's de facto standard.                               *
  31:..\..\Common\Minimal/comtest.c ****      *                                                                       *
  32:..\..\Common\Minimal/comtest.c ****      *    Help yourself get started quickly while simultaneously helping     *
  33:..\..\Common\Minimal/comtest.c ****      *    to support the FreeRTOS project by purchasing a FreeRTOS           *
  34:..\..\Common\Minimal/comtest.c ****      *    tutorial book, reference manual, or both:                          *
  35:..\..\Common\Minimal/comtest.c ****      *    http://www.FreeRTOS.org/Documentation                              *
  36:..\..\Common\Minimal/comtest.c ****      *                                                                       *
  37:..\..\Common\Minimal/comtest.c ****     ***************************************************************************
  38:..\..\Common\Minimal/comtest.c **** 
  39:..\..\Common\Minimal/comtest.c ****     http://www.FreeRTOS.org/FAQHelp.html - Having a problem?  Start by reading
  40:..\..\Common\Minimal/comtest.c ****     the FAQ page "My application does not run, what could be wrong?".  Have you
  41:..\..\Common\Minimal/comtest.c ****     defined configASSERT()?
  42:..\..\Common\Minimal/comtest.c **** 
  43:..\..\Common\Minimal/comtest.c ****     http://www.FreeRTOS.org/support - In return for receiving this top quality
  44:..\..\Common\Minimal/comtest.c ****     embedded software for free we request you assist our global community by
  45:..\..\Common\Minimal/comtest.c ****     participating in the support forum.
  46:..\..\Common\Minimal/comtest.c **** 
  47:..\..\Common\Minimal/comtest.c ****     http://www.FreeRTOS.org/training - Investing in training allows your team to
  48:..\..\Common\Minimal/comtest.c ****     be as productive as possible as early as possible.  Now you can receive
  49:..\..\Common\Minimal/comtest.c ****     FreeRTOS training directly from Richard Barry, CEO of Real Time Engineers
  50:..\..\Common\Minimal/comtest.c ****     Ltd, and the world's leading authority on the world's leading RTOS.
  51:..\..\Common\Minimal/comtest.c **** 
  52:..\..\Common\Minimal/comtest.c ****     http://www.FreeRTOS.org/plus - A selection of FreeRTOS ecosystem products,
  53:..\..\Common\Minimal/comtest.c ****     including FreeRTOS+Trace - an indispensable productivity tool, a DOS
  54:..\..\Common\Minimal/comtest.c ****     compatible FAT file system, and our tiny thread aware UDP/IP stack.
  55:..\..\Common\Minimal/comtest.c **** 
  56:..\..\Common\Minimal/comtest.c ****     http://www.FreeRTOS.org/labs - Where new FreeRTOS products go to incubate.
  57:..\..\Common\Minimal/comtest.c ****     Come and try FreeRTOS+TCP, our new open source TCP/IP stack for FreeRTOS.
  58:..\..\Common\Minimal/comtest.c **** 
  59:..\..\Common\Minimal/comtest.c ****     http://www.OpenRTOS.com - Real Time Engineers ltd. license FreeRTOS to High
  60:..\..\Common\Minimal/comtest.c ****     Integrity Systems ltd. to sell under the OpenRTOS brand.  Low cost OpenRTOS
  61:..\..\Common\Minimal/comtest.c ****     licenses offer ticketed support, indemnification and commercial middleware.
  62:..\..\Common\Minimal/comtest.c **** 
  63:..\..\Common\Minimal/comtest.c ****     http://www.SafeRTOS.com - High Integrity Systems also provide a safety
  64:..\..\Common\Minimal/comtest.c ****     engineered and independently SIL3 certified version for use in safety and
  65:..\..\Common\Minimal/comtest.c ****     mission critical applications that require provable dependability.
  66:..\..\Common\Minimal/comtest.c **** 
  67:..\..\Common\Minimal/comtest.c ****     1 tab == 4 spaces!
  68:..\..\Common\Minimal/comtest.c **** */
  69:..\..\Common\Minimal/comtest.c **** 
ARM GAS  C:\Users\NGGMLGM\AppData\Local\Temp\ccHulEIb.s 			page 3


  70:..\..\Common\Minimal/comtest.c **** 
  71:..\..\Common\Minimal/comtest.c **** /*
  72:..\..\Common\Minimal/comtest.c ****  * This version of comtest. c is for use on systems that have limited stack
  73:..\..\Common\Minimal/comtest.c ****  * space and no display facilities.  The complete version can be found in
  74:..\..\Common\Minimal/comtest.c ****  * the Demo/Common/Full directory.
  75:..\..\Common\Minimal/comtest.c ****  *
  76:..\..\Common\Minimal/comtest.c ****  * Creates two tasks that operate on an interrupt driven serial port.  A
  77:..\..\Common\Minimal/comtest.c ****  * loopback connector should be used so that everything that is transmitted is
  78:..\..\Common\Minimal/comtest.c ****  * also received.  The serial port does not use any flow control.  On a
  79:..\..\Common\Minimal/comtest.c ****  * standard 9way 'D' connector pins two and three should be connected together.
  80:..\..\Common\Minimal/comtest.c ****  *
  81:..\..\Common\Minimal/comtest.c ****  * The first task posts a sequence of characters to the Tx queue, toggling an
  82:..\..\Common\Minimal/comtest.c ****  * LED on each successful post.  At the end of the sequence it sleeps for a
  83:..\..\Common\Minimal/comtest.c ****  * pseudo-random period before resending the same sequence.
  84:..\..\Common\Minimal/comtest.c ****  *
  85:..\..\Common\Minimal/comtest.c ****  * The UART Tx end interrupt is enabled whenever data is available in the Tx
  86:..\..\Common\Minimal/comtest.c ****  * queue.  The Tx end ISR removes a single character from the Tx queue and
  87:..\..\Common\Minimal/comtest.c ****  * passes it to the UART for transmission.
  88:..\..\Common\Minimal/comtest.c ****  *
  89:..\..\Common\Minimal/comtest.c ****  * The second task blocks on the Rx queue waiting for a character to become
  90:..\..\Common\Minimal/comtest.c ****  * available.  When the UART Rx end interrupt receives a character it places
  91:..\..\Common\Minimal/comtest.c ****  * it in the Rx queue, waking the second task.  The second task checks that the
  92:..\..\Common\Minimal/comtest.c ****  * characters removed from the Rx queue form the same sequence as those posted
  93:..\..\Common\Minimal/comtest.c ****  * to the Tx queue, and toggles an LED for each correct character.
  94:..\..\Common\Minimal/comtest.c ****  *
  95:..\..\Common\Minimal/comtest.c ****  * The receiving task is spawned with a higher priority than the transmitting
  96:..\..\Common\Minimal/comtest.c ****  * task.  The receiver will therefore wake every time a character is
  97:..\..\Common\Minimal/comtest.c ****  * transmitted so neither the Tx or Rx queue should ever hold more than a few
  98:..\..\Common\Minimal/comtest.c ****  * characters.
  99:..\..\Common\Minimal/comtest.c ****  *
 100:..\..\Common\Minimal/comtest.c ****  */
 101:..\..\Common\Minimal/comtest.c **** 
 102:..\..\Common\Minimal/comtest.c **** /* Scheduler include files. */
 103:..\..\Common\Minimal/comtest.c **** #include <stdlib.h>
 104:..\..\Common\Minimal/comtest.c **** #include "FreeRTOS.h"
 105:..\..\Common\Minimal/comtest.c **** #include "task.h"
 106:..\..\Common\Minimal/comtest.c **** 
 107:..\..\Common\Minimal/comtest.c **** /* Demo program include files. */
 108:..\..\Common\Minimal/comtest.c **** #include "serial.h"
 109:..\..\Common\Minimal/comtest.c **** #include "comtest.h"
 110:..\..\Common\Minimal/comtest.c **** #include "partest.h"
 111:..\..\Common\Minimal/comtest.c **** 
 112:..\..\Common\Minimal/comtest.c **** #define comSTACK_SIZE				configMINIMAL_STACK_SIZE
 113:..\..\Common\Minimal/comtest.c **** #define comTX_LED_OFFSET			( 0 )
 114:..\..\Common\Minimal/comtest.c **** #define comRX_LED_OFFSET			( 1 )
 115:..\..\Common\Minimal/comtest.c **** #define comTOTAL_PERMISSIBLE_ERRORS ( 2 )
 116:..\..\Common\Minimal/comtest.c **** 
 117:..\..\Common\Minimal/comtest.c **** /* The Tx task will transmit the sequence of characters at a pseudo random
 118:..\..\Common\Minimal/comtest.c **** interval.  This is the maximum and minimum block time between sends. */
 119:..\..\Common\Minimal/comtest.c **** #define comTX_MAX_BLOCK_TIME		( ( TickType_t ) 0x96 )
 120:..\..\Common\Minimal/comtest.c **** #define comTX_MIN_BLOCK_TIME		( ( TickType_t ) 0x32 )
 121:..\..\Common\Minimal/comtest.c **** #define comOFFSET_TIME				( ( TickType_t ) 3 )
 122:..\..\Common\Minimal/comtest.c **** 
 123:..\..\Common\Minimal/comtest.c **** /* We should find that each character can be queued for Tx immediately and we
 124:..\..\Common\Minimal/comtest.c **** don't have to block to send. */
 125:..\..\Common\Minimal/comtest.c **** #define comNO_BLOCK					( ( TickType_t ) 0 )
 126:..\..\Common\Minimal/comtest.c **** 
ARM GAS  C:\Users\NGGMLGM\AppData\Local\Temp\ccHulEIb.s 			page 4


 127:..\..\Common\Minimal/comtest.c **** /* The Rx task will block on the Rx queue for a long period. */
 128:..\..\Common\Minimal/comtest.c **** #define comRX_BLOCK_TIME			( ( TickType_t ) 0xffff )
 129:..\..\Common\Minimal/comtest.c **** 
 130:..\..\Common\Minimal/comtest.c **** /* The sequence transmitted is from comFIRST_BYTE to and including comLAST_BYTE. */
 131:..\..\Common\Minimal/comtest.c **** #define comFIRST_BYTE				( 'A' )
 132:..\..\Common\Minimal/comtest.c **** #define comLAST_BYTE				( 'X' )
 133:..\..\Common\Minimal/comtest.c **** 
 134:..\..\Common\Minimal/comtest.c **** #define comBUFFER_LEN				( ( UBaseType_t ) ( comLAST_BYTE - comFIRST_BYTE ) + ( UBaseType_t ) 1 )
 135:..\..\Common\Minimal/comtest.c **** #define comINITIAL_RX_COUNT_VALUE	( 0 )
 136:..\..\Common\Minimal/comtest.c **** 
 137:..\..\Common\Minimal/comtest.c **** /* Handle to the com port used by both tasks. */
 138:..\..\Common\Minimal/comtest.c **** static xComPortHandle xPort = NULL;
 139:..\..\Common\Minimal/comtest.c **** 
 140:..\..\Common\Minimal/comtest.c **** /* The transmit task as described at the top of the file. */
 141:..\..\Common\Minimal/comtest.c **** static portTASK_FUNCTION_PROTO( vComTxTask, pvParameters );
 142:..\..\Common\Minimal/comtest.c **** 
 143:..\..\Common\Minimal/comtest.c **** /* The receive task as described at the top of the file. */
 144:..\..\Common\Minimal/comtest.c **** static portTASK_FUNCTION_PROTO( vComRxTask, pvParameters );
 145:..\..\Common\Minimal/comtest.c **** 
 146:..\..\Common\Minimal/comtest.c **** /* The LED that should be toggled by the Rx and Tx tasks.  The Rx task will
 147:..\..\Common\Minimal/comtest.c **** toggle LED ( uxBaseLED + comRX_LED_OFFSET).  The Tx task will toggle LED
 148:..\..\Common\Minimal/comtest.c **** ( uxBaseLED + comTX_LED_OFFSET ). */
 149:..\..\Common\Minimal/comtest.c **** static UBaseType_t uxBaseLED = 0;
 150:..\..\Common\Minimal/comtest.c **** 
 151:..\..\Common\Minimal/comtest.c **** /* Check variable used to ensure no error have occurred.  The Rx task will
 152:..\..\Common\Minimal/comtest.c **** increment this variable after every successfully received sequence.  If at any
 153:..\..\Common\Minimal/comtest.c **** time the sequence is incorrect the the variable will stop being incremented. */
 154:..\..\Common\Minimal/comtest.c **** static volatile UBaseType_t uxRxLoops = comINITIAL_RX_COUNT_VALUE;
 155:..\..\Common\Minimal/comtest.c **** 
 156:..\..\Common\Minimal/comtest.c **** /*-----------------------------------------------------------*/
 157:..\..\Common\Minimal/comtest.c **** 
 158:..\..\Common\Minimal/comtest.c **** void vAltStartComTestTasks( UBaseType_t uxPriority, uint32_t ulBaudRate, UBaseType_t uxLED )
 159:..\..\Common\Minimal/comtest.c **** {
  44              		.loc 1 159 0
  45              		.cfi_startproc
  46              		@ args = 0, pretend = 0, frame = 16
  47              		@ frame_needed = 1, uses_anonymous_args = 0
  48 0000 80B5     		push	{r7, lr}
  49              		.cfi_def_cfa_offset 8
  50              		.cfi_offset 7, -8
  51              		.cfi_offset 14, -4
  52 0002 86B0     		sub	sp, sp, #24
  53              		.cfi_def_cfa_offset 32
  54 0004 02AF     		add	r7, sp, #8
  55              		.cfi_def_cfa 7, 24
  56 0006 F860     		str	r0, [r7, #12]
  57 0008 B960     		str	r1, [r7, #8]
  58 000a 7A60     		str	r2, [r7, #4]
 160:..\..\Common\Minimal/comtest.c **** 	/* Initialise the com port then spawn the Rx and Tx tasks. */
 161:..\..\Common\Minimal/comtest.c **** 	uxBaseLED = uxLED;
  59              		.loc 1 161 0
  60 000c 0F4A     		ldr	r2, .L2
  61 000e 7B68     		ldr	r3, [r7, #4]
  62 0010 1360     		str	r3, [r2]
 162:..\..\Common\Minimal/comtest.c **** 	xSerialPortInitMinimal( ulBaudRate, comBUFFER_LEN );
  63              		.loc 1 162 0
  64 0012 B868     		ldr	r0, [r7, #8]
ARM GAS  C:\Users\NGGMLGM\AppData\Local\Temp\ccHulEIb.s 			page 5


  65 0014 1821     		movs	r1, #24
  66 0016 FFF7FEFF 		bl	xSerialPortInitMinimal
 163:..\..\Common\Minimal/comtest.c **** 
 164:..\..\Common\Minimal/comtest.c **** 	/* The Tx task is spawned with a lower priority than the Rx task. */
 165:..\..\Common\Minimal/comtest.c **** 	xTaskCreate( vComTxTask, "COMTx", comSTACK_SIZE, NULL, uxPriority - 1, ( TaskHandle_t * ) NULL );
  67              		.loc 1 165 0
  68 001a FB68     		ldr	r3, [r7, #12]
  69 001c 013B     		subs	r3, r3, #1
  70 001e 0093     		str	r3, [sp]
  71 0020 0023     		movs	r3, #0
  72 0022 0193     		str	r3, [sp, #4]
  73 0024 0A48     		ldr	r0, .L2+4
  74 0026 0B49     		ldr	r1, .L2+8
  75 0028 6422     		movs	r2, #100
  76 002a 0023     		movs	r3, #0
  77 002c FFF7FEFF 		bl	xTaskCreate
 166:..\..\Common\Minimal/comtest.c **** 	xTaskCreate( vComRxTask, "COMRx", comSTACK_SIZE, NULL, uxPriority, ( TaskHandle_t * ) NULL );
  78              		.loc 1 166 0
  79 0030 FB68     		ldr	r3, [r7, #12]
  80 0032 0093     		str	r3, [sp]
  81 0034 0023     		movs	r3, #0
  82 0036 0193     		str	r3, [sp, #4]
  83 0038 0748     		ldr	r0, .L2+12
  84 003a 0849     		ldr	r1, .L2+16
  85 003c 6422     		movs	r2, #100
  86 003e 0023     		movs	r3, #0
  87 0040 FFF7FEFF 		bl	xTaskCreate
 167:..\..\Common\Minimal/comtest.c **** }
  88              		.loc 1 167 0
  89 0044 1037     		adds	r7, r7, #16
  90              		.cfi_def_cfa_offset 8
  91 0046 BD46     		mov	sp, r7
  92              		.cfi_def_cfa_register 13
  93              		@ sp needed
  94 0048 80BD     		pop	{r7, pc}
  95              	.L3:
  96 004a 00BF     		.align	2
  97              	.L2:
  98 004c 04000000 		.word	uxBaseLED
  99 0050 00000000 		.word	vComTxTask
 100 0054 00000000 		.word	.LC0
 101 0058 00000000 		.word	vComRxTask
 102 005c 08000000 		.word	.LC1
 103              		.cfi_endproc
 104              	.LFE68:
 105              		.size	vAltStartComTestTasks, .-vAltStartComTestTasks
 106              		.section	.text.vComTxTask,"ax",%progbits
 107              		.align	2
 108              		.thumb
 109              		.thumb_func
 110              		.type	vComTxTask, %function
 111              	vComTxTask:
 112              	.LFB69:
 168:..\..\Common\Minimal/comtest.c **** /*-----------------------------------------------------------*/
 169:..\..\Common\Minimal/comtest.c **** 
 170:..\..\Common\Minimal/comtest.c **** static portTASK_FUNCTION( vComTxTask, pvParameters )
 171:..\..\Common\Minimal/comtest.c **** {
ARM GAS  C:\Users\NGGMLGM\AppData\Local\Temp\ccHulEIb.s 			page 6


 113              		.loc 1 171 0
 114              		.cfi_startproc
 115              		@ args = 0, pretend = 0, frame = 16
 116              		@ frame_needed = 1, uses_anonymous_args = 0
 117 0000 80B5     		push	{r7, lr}
 118              		.cfi_def_cfa_offset 8
 119              		.cfi_offset 7, -8
 120              		.cfi_offset 14, -4
 121 0002 84B0     		sub	sp, sp, #16
 122              		.cfi_def_cfa_offset 24
 123 0004 00AF     		add	r7, sp, #0
 124              		.cfi_def_cfa_register 7
 125 0006 7860     		str	r0, [r7, #4]
 126              	.L8:
 172:..\..\Common\Minimal/comtest.c **** char cByteToSend;
 173:..\..\Common\Minimal/comtest.c **** TickType_t xTimeToWait;
 174:..\..\Common\Minimal/comtest.c **** 
 175:..\..\Common\Minimal/comtest.c **** 	/* Just to stop compiler warnings. */
 176:..\..\Common\Minimal/comtest.c **** 	( void ) pvParameters;
 177:..\..\Common\Minimal/comtest.c **** 
 178:..\..\Common\Minimal/comtest.c **** 	for( ;; )
 179:..\..\Common\Minimal/comtest.c **** 	{
 180:..\..\Common\Minimal/comtest.c **** 		/* Simply transmit a sequence of characters from comFIRST_BYTE to
 181:..\..\Common\Minimal/comtest.c **** 		comLAST_BYTE. */
 182:..\..\Common\Minimal/comtest.c **** 		for( cByteToSend = comFIRST_BYTE; cByteToSend <= comLAST_BYTE; cByteToSend++ )
 127              		.loc 1 182 0
 128 0008 4123     		movs	r3, #65
 129 000a FB73     		strb	r3, [r7, #15]
 130 000c 0BE0     		b	.L5
 131              	.L6:
 183:..\..\Common\Minimal/comtest.c **** 		{
 184:..\..\Common\Minimal/comtest.c **** 			xSerialPutChar( xPort, cByteToSend, comNO_BLOCK );
 132              		.loc 1 184 0 discriminator 3
 133 000e 134B     		ldr	r3, .L9
 134 0010 1A68     		ldr	r2, [r3]
 135 0012 FB7B     		ldrb	r3, [r7, #15]	@ zero_extendqisi2
 136 0014 5BB2     		sxtb	r3, r3
 137 0016 1046     		mov	r0, r2
 138 0018 1946     		mov	r1, r3
 139 001a 0022     		movs	r2, #0
 140 001c FFF7FEFF 		bl	xSerialPutChar
 182:..\..\Common\Minimal/comtest.c **** 		{
 141              		.loc 1 182 0 discriminator 3
 142 0020 FB7B     		ldrb	r3, [r7, #15]	@ zero_extendqisi2
 143 0022 0133     		adds	r3, r3, #1
 144 0024 FB73     		strb	r3, [r7, #15]
 145              	.L5:
 182:..\..\Common\Minimal/comtest.c **** 		{
 146              		.loc 1 182 0 is_stmt 0 discriminator 1
 147 0026 FB7B     		ldrb	r3, [r7, #15]	@ zero_extendqisi2
 148 0028 582B     		cmp	r3, #88
 149 002a F0D9     		bls	.L6
 185:..\..\Common\Minimal/comtest.c **** 		}
 186:..\..\Common\Minimal/comtest.c **** 
 187:..\..\Common\Minimal/comtest.c **** 		/* We have posted all the characters in the string - wait before
 188:..\..\Common\Minimal/comtest.c **** 		re-sending.  Wait a pseudo-random time as this will provide a better
 189:..\..\Common\Minimal/comtest.c **** 		test. */
ARM GAS  C:\Users\NGGMLGM\AppData\Local\Temp\ccHulEIb.s 			page 7


 190:..\..\Common\Minimal/comtest.c **** 		xTimeToWait = xTaskGetTickCount() + comOFFSET_TIME;
 150              		.loc 1 190 0 is_stmt 1
 151 002c FFF7FEFF 		bl	xTaskGetTickCount
 152 0030 0346     		mov	r3, r0
 153 0032 0333     		adds	r3, r3, #3
 154 0034 BB60     		str	r3, [r7, #8]
 191:..\..\Common\Minimal/comtest.c **** 
 192:..\..\Common\Minimal/comtest.c **** 		/* Make sure we don't wait too long... */
 193:..\..\Common\Minimal/comtest.c **** 		xTimeToWait %= comTX_MAX_BLOCK_TIME;
 155              		.loc 1 193 0
 156 0036 BB68     		ldr	r3, [r7, #8]
 157 0038 094A     		ldr	r2, .L9+4
 158 003a A2FB0312 		umull	r1, r2, r2, r3
 159 003e 1209     		lsrs	r2, r2, #4
 160 0040 9621     		movs	r1, #150
 161 0042 01FB02F2 		mul	r2, r1, r2
 162 0046 9B1A     		subs	r3, r3, r2
 163 0048 BB60     		str	r3, [r7, #8]
 194:..\..\Common\Minimal/comtest.c **** 
 195:..\..\Common\Minimal/comtest.c **** 		/* ...but we do want to wait. */
 196:..\..\Common\Minimal/comtest.c **** 		if( xTimeToWait < comTX_MIN_BLOCK_TIME )
 164              		.loc 1 196 0
 165 004a BB68     		ldr	r3, [r7, #8]
 166 004c 312B     		cmp	r3, #49
 167 004e 01D8     		bhi	.L7
 197:..\..\Common\Minimal/comtest.c **** 		{
 198:..\..\Common\Minimal/comtest.c **** 			xTimeToWait = comTX_MIN_BLOCK_TIME;
 168              		.loc 1 198 0
 169 0050 3223     		movs	r3, #50
 170 0052 BB60     		str	r3, [r7, #8]
 171              	.L7:
 199:..\..\Common\Minimal/comtest.c **** 		}
 200:..\..\Common\Minimal/comtest.c **** 
 201:..\..\Common\Minimal/comtest.c **** 		vTaskDelay( xTimeToWait );
 172              		.loc 1 201 0
 173 0054 B868     		ldr	r0, [r7, #8]
 174 0056 FFF7FEFF 		bl	vTaskDelay
 202:..\..\Common\Minimal/comtest.c **** 	}
 175              		.loc 1 202 0
 176 005a D5E7     		b	.L8
 177              	.L10:
 178              		.align	2
 179              	.L9:
 180 005c 00000000 		.word	xPort
 181 0060 B5814E1B 		.word	458129845
 182              		.cfi_endproc
 183              	.LFE69:
 184              		.size	vComTxTask, .-vComTxTask
 185              		.section	.text.vComRxTask,"ax",%progbits
 186              		.align	2
 187              		.thumb
 188              		.thumb_func
 189              		.type	vComRxTask, %function
 190              	vComRxTask:
 191              	.LFB70:
 203:..\..\Common\Minimal/comtest.c **** } /*lint !e715 !e818 pvParameters is required for a task function even if it is not referenced. */
 204:..\..\Common\Minimal/comtest.c **** /*-----------------------------------------------------------*/
ARM GAS  C:\Users\NGGMLGM\AppData\Local\Temp\ccHulEIb.s 			page 8


 205:..\..\Common\Minimal/comtest.c **** 
 206:..\..\Common\Minimal/comtest.c **** static portTASK_FUNCTION( vComRxTask, pvParameters )
 207:..\..\Common\Minimal/comtest.c **** {
 192              		.loc 1 207 0
 193              		.cfi_startproc
 194              		@ args = 0, pretend = 0, frame = 24
 195              		@ frame_needed = 1, uses_anonymous_args = 0
 196 0000 80B5     		push	{r7, lr}
 197              		.cfi_def_cfa_offset 8
 198              		.cfi_offset 7, -8
 199              		.cfi_offset 14, -4
 200 0002 86B0     		sub	sp, sp, #24
 201              		.cfi_def_cfa_offset 32
 202 0004 00AF     		add	r7, sp, #0
 203              		.cfi_def_cfa_register 7
 204 0006 7860     		str	r0, [r7, #4]
 208:..\..\Common\Minimal/comtest.c **** signed char cExpectedByte, cByteRxed;
 209:..\..\Common\Minimal/comtest.c **** BaseType_t xResyncRequired = pdFALSE, xErrorOccurred = pdFALSE;
 205              		.loc 1 209 0
 206 0008 0023     		movs	r3, #0
 207 000a 7B61     		str	r3, [r7, #20]
 208 000c 0023     		movs	r3, #0
 209 000e 3B61     		str	r3, [r7, #16]
 210              	.L12:
 210:..\..\Common\Minimal/comtest.c **** 
 211:..\..\Common\Minimal/comtest.c **** 	/* Just to stop compiler warnings. */
 212:..\..\Common\Minimal/comtest.c **** 	( void ) pvParameters;
 213:..\..\Common\Minimal/comtest.c **** 
 214:..\..\Common\Minimal/comtest.c **** 	for( ;; )
 215:..\..\Common\Minimal/comtest.c **** 	{
 216:..\..\Common\Minimal/comtest.c **** 		/* Block on the queue that contains received bytes until a byte is
 217:..\..\Common\Minimal/comtest.c **** 		available. */
 218:..\..\Common\Minimal/comtest.c **** 		xSerialGetChar( xPort, &cByteRxed, comRX_BLOCK_TIME ); 
 211              		.loc 1 218 0 discriminator 1
 212 0010 054B     		ldr	r3, .L13
 213 0012 1A68     		ldr	r2, [r3]
 214 0014 07F10F03 		add	r3, r7, #15
 215 0018 1046     		mov	r0, r2
 216 001a 1946     		mov	r1, r3
 217 001c 4FF6FF72 		movw	r2, #65535
 218 0020 FFF7FEFF 		bl	xSerialGetChar
 219:..\..\Common\Minimal/comtest.c ****         
 220:..\..\Common\Minimal/comtest.c ****         /* Now send to the servoqueue or task etc but this isn't implemeted yet */
 221:..\..\Common\Minimal/comtest.c **** 	}
 219              		.loc 1 221 0 discriminator 1
 220 0024 F4E7     		b	.L12
 221              	.L14:
 222 0026 00BF     		.align	2
 223              	.L13:
 224 0028 00000000 		.word	xPort
 225              		.cfi_endproc
 226              	.LFE70:
 227              		.size	vComRxTask, .-vComRxTask
 228              		.section	.text.xAreComTestTasksStillRunning,"ax",%progbits
 229              		.align	2
 230              		.global	xAreComTestTasksStillRunning
 231              		.thumb
ARM GAS  C:\Users\NGGMLGM\AppData\Local\Temp\ccHulEIb.s 			page 9


 232              		.thumb_func
 233              		.type	xAreComTestTasksStillRunning, %function
 234              	xAreComTestTasksStillRunning:
 235              	.LFB71:
 222:..\..\Common\Minimal/comtest.c **** } /*lint !e715 !e818 pvParameters is required for a task function even if it is not referenced. */
 223:..\..\Common\Minimal/comtest.c **** /*-----------------------------------------------------------*/
 224:..\..\Common\Minimal/comtest.c **** 
 225:..\..\Common\Minimal/comtest.c **** BaseType_t xAreComTestTasksStillRunning( void )
 226:..\..\Common\Minimal/comtest.c **** {
 236              		.loc 1 226 0
 237              		.cfi_startproc
 238              		@ args = 0, pretend = 0, frame = 8
 239              		@ frame_needed = 1, uses_anonymous_args = 0
 240              		@ link register save eliminated.
 241 0000 80B4     		push	{r7}
 242              		.cfi_def_cfa_offset 4
 243              		.cfi_offset 7, -4
 244 0002 83B0     		sub	sp, sp, #12
 245              		.cfi_def_cfa_offset 16
 246 0004 00AF     		add	r7, sp, #0
 247              		.cfi_def_cfa_register 7
 227:..\..\Common\Minimal/comtest.c **** BaseType_t xReturn;
 228:..\..\Common\Minimal/comtest.c **** 
 229:..\..\Common\Minimal/comtest.c **** 	/* If the count of successful reception loops has not changed than at
 230:..\..\Common\Minimal/comtest.c **** 	some time an error occurred (i.e. a character was received out of sequence)
 231:..\..\Common\Minimal/comtest.c **** 	and we will return false. */
 232:..\..\Common\Minimal/comtest.c **** 	if( uxRxLoops == comINITIAL_RX_COUNT_VALUE )
 248              		.loc 1 232 0
 249 0006 094B     		ldr	r3, .L19
 250 0008 1B68     		ldr	r3, [r3]
 251 000a 002B     		cmp	r3, #0
 252 000c 02D1     		bne	.L16
 233:..\..\Common\Minimal/comtest.c **** 	{
 234:..\..\Common\Minimal/comtest.c **** 		xReturn = pdFALSE;
 253              		.loc 1 234 0
 254 000e 0023     		movs	r3, #0
 255 0010 7B60     		str	r3, [r7, #4]
 256 0012 01E0     		b	.L17
 257              	.L16:
 235:..\..\Common\Minimal/comtest.c **** 	}
 236:..\..\Common\Minimal/comtest.c **** 	else
 237:..\..\Common\Minimal/comtest.c **** 	{
 238:..\..\Common\Minimal/comtest.c **** 		xReturn = pdTRUE;
 258              		.loc 1 238 0
 259 0014 0123     		movs	r3, #1
 260 0016 7B60     		str	r3, [r7, #4]
 261              	.L17:
 239:..\..\Common\Minimal/comtest.c **** 	}
 240:..\..\Common\Minimal/comtest.c **** 
 241:..\..\Common\Minimal/comtest.c **** 	/* Reset the count of successful Rx loops.  When this function is called
 242:..\..\Common\Minimal/comtest.c **** 	again we expect this to have been incremented. */
 243:..\..\Common\Minimal/comtest.c **** 	uxRxLoops = comINITIAL_RX_COUNT_VALUE;
 262              		.loc 1 243 0
 263 0018 044B     		ldr	r3, .L19
 264 001a 0022     		movs	r2, #0
 265 001c 1A60     		str	r2, [r3]
 244:..\..\Common\Minimal/comtest.c **** 
ARM GAS  C:\Users\NGGMLGM\AppData\Local\Temp\ccHulEIb.s 			page 10


 245:..\..\Common\Minimal/comtest.c **** 	return xReturn;
 266              		.loc 1 245 0
 267 001e 7B68     		ldr	r3, [r7, #4]
 246:..\..\Common\Minimal/comtest.c **** }
 268              		.loc 1 246 0
 269 0020 1846     		mov	r0, r3
 270 0022 0C37     		adds	r7, r7, #12
 271              		.cfi_def_cfa_offset 4
 272 0024 BD46     		mov	sp, r7
 273              		.cfi_def_cfa_register 13
 274              		@ sp needed
 275 0026 5DF8047B 		ldr	r7, [sp], #4
 276              		.cfi_restore 7
 277              		.cfi_def_cfa_offset 0
 278 002a 7047     		bx	lr
 279              	.L20:
 280              		.align	2
 281              	.L19:
 282 002c 08000000 		.word	uxRxLoops
 283              		.cfi_endproc
 284              	.LFE71:
 285              		.size	xAreComTestTasksStillRunning, .-xAreComTestTasksStillRunning
 286              		.text
 287              	.Letext0:
 288              		.file 2 "c:\\program files (x86)\\cypress\\psoc creator\\4.0\\psoc creator\\import\\gnu\\arm\\4.9.
 289              		.file 3 "c:\\program files (x86)\\cypress\\psoc creator\\4.0\\psoc creator\\import\\gnu\\arm\\4.9.
 290              		.file 4 "../../../Source/portable/GCC/ARM_CM3/portmacro.h"
 291              		.file 5 "../../../Source/include/task.h"
 292              		.file 6 "../../Common/include/serial.h"
 293              		.file 7 "Generated_Source\\PSoC5/core_cm3.h"