ARM GAS  C:\Users\NGGMLGM\AppData\Local\Temp\ccgCoeGO.s 			page 1


   1              		.syntax unified
   2              		.cpu cortex-m3
   3              		.fpu softvfp
   4              		.eabi_attribute 20, 1
   5              		.eabi_attribute 21, 1
   6              		.eabi_attribute 23, 3
   7              		.eabi_attribute 24, 1
   8              		.eabi_attribute 25, 1
   9              		.eabi_attribute 26, 1
  10              		.eabi_attribute 30, 6
  11              		.eabi_attribute 34, 1
  12              		.eabi_attribute 18, 4
  13              		.thumb
  14              		.file	"main.c"
  15              		.text
  16              	.Ltext0:
  17              		.cfi_sections	.debug_frame
  18              		.section	.text.main,"ax",%progbits
  19              		.align	2
  20              		.global	main
  21              		.thumb
  22              		.thumb_func
  23              		.type	main, %function
  24              	main:
  25              	.LFB68:
  26              		.file 1 "main.c"
   1:main.c        **** /*
   2:main.c        ****     FreeRTOS V9.0.0rc2 - Copyright (C) 2016 Real Time Engineers Ltd.
   3:main.c        ****     All rights reserved
   4:main.c        **** 
   5:main.c        ****     VISIT http://www.FreeRTOS.org TO ENSURE YOU ARE USING THE LATEST VERSION.
   6:main.c        **** 
   7:main.c        ****     This file is part of the FreeRTOS distribution.
   8:main.c        **** 
   9:main.c        ****     FreeRTOS is free software; you can redistribute it and/or modify it under
  10:main.c        ****     the terms of the GNU General Public License (version 2) as published by the
  11:main.c        ****     Free Software Foundation >>>> AND MODIFIED BY <<<< the FreeRTOS exception.
  12:main.c        **** 
  13:main.c        ****     ***************************************************************************
  14:main.c        ****     >>!   NOTE: The modification to the GPL is included to allow you to     !<<
  15:main.c        ****     >>!   distribute a combined work that includes FreeRTOS without being   !<<
  16:main.c        ****     >>!   obliged to provide the source code for proprietary components     !<<
  17:main.c        ****     >>!   outside of the FreeRTOS kernel.                                   !<<
  18:main.c        ****     ***************************************************************************
  19:main.c        **** 
  20:main.c        ****     FreeRTOS is distributed in the hope that it will be useful, but WITHOUT ANY
  21:main.c        ****     WARRANTY; without even the implied warranty of MERCHANTABILITY or FITNESS
  22:main.c        ****     FOR A PARTICULAR PURPOSE.  Full license text is available on the following
  23:main.c        ****     link: http://www.freertos.org/a00114.html
  24:main.c        **** 
  25:main.c        ****     ***************************************************************************
  26:main.c        ****      *                                                                       *
  27:main.c        ****      *    FreeRTOS provides completely free yet professionally developed,    *
  28:main.c        ****      *    robust, strictly quality controlled, supported, and cross          *
  29:main.c        ****      *    platform software that is more than just the market leader, it     *
  30:main.c        ****      *    is the industry's de facto standard.                               *
  31:main.c        ****      *                                                                       *
ARM GAS  C:\Users\NGGMLGM\AppData\Local\Temp\ccgCoeGO.s 			page 2


  32:main.c        ****      *    Help yourself get started quickly while simultaneously helping     *
  33:main.c        ****      *    to support the FreeRTOS project by purchasing a FreeRTOS           *
  34:main.c        ****      *    tutorial book, reference manual, or both:                          *
  35:main.c        ****      *    http://www.FreeRTOS.org/Documentation                              *
  36:main.c        ****      *                                                                       *
  37:main.c        ****     ***************************************************************************
  38:main.c        **** 
  39:main.c        ****     http://www.FreeRTOS.org/FAQHelp.html - Having a problem?  Start by reading
  40:main.c        ****     the FAQ page "My application does not run, what could be wrong?".  Have you
  41:main.c        ****     defined configASSERT()?
  42:main.c        **** 
  43:main.c        ****     http://www.FreeRTOS.org/support - In return for receiving this top quality
  44:main.c        ****     embedded software for free we request you assist our global community by
  45:main.c        ****     participating in the support forum.
  46:main.c        **** 
  47:main.c        ****     http://www.FreeRTOS.org/training - Investing in training allows your team to
  48:main.c        ****     be as productive as possible as early as possible.  Now you can receive
  49:main.c        ****     FreeRTOS training directly from Richard Barry, CEO of Real Time Engineers
  50:main.c        ****     Ltd, and the world's leading authority on the world's leading RTOS.
  51:main.c        **** 
  52:main.c        ****     http://www.FreeRTOS.org/plus - A selection of FreeRTOS ecosystem products,
  53:main.c        ****     including FreeRTOS+Trace - an indispensable productivity tool, a DOS
  54:main.c        ****     compatible FAT file system, and our tiny thread aware UDP/IP stack.
  55:main.c        **** 
  56:main.c        ****     http://www.FreeRTOS.org/labs - Where new FreeRTOS products go to incubate.
  57:main.c        ****     Come and try FreeRTOS+TCP, our new open source TCP/IP stack for FreeRTOS.
  58:main.c        **** 
  59:main.c        ****     http://www.OpenRTOS.com - Real Time Engineers ltd. license FreeRTOS to High
  60:main.c        ****     Integrity Systems ltd. to sell under the OpenRTOS brand.  Low cost OpenRTOS
  61:main.c        ****     licenses offer ticketed support, indemnification and commercial middleware.
  62:main.c        **** 
  63:main.c        ****     http://www.SafeRTOS.com - High Integrity Systems also provide a safety
  64:main.c        ****     engineered and independently SIL3 certified version for use in safety and
  65:main.c        ****     mission critical applications that require provable dependability.
  66:main.c        **** 
  67:main.c        ****     1 tab == 4 spaces!
  68:main.c        **** */
  69:main.c        **** 
  70:main.c        **** #include <device.h>
  71:main.c        **** 
  72:main.c        **** /* RTOS includes. */
  73:main.c        **** #include "FreeRTOS.h"
  74:main.c        **** #include "task.h"
  75:main.c        **** #include "queue.h"
  76:main.c        **** #include "semphr.h"
  77:main.c        **** 
  78:main.c        **** /* Common Demo includes. */
  79:main.c        **** #include "serial.h"
  80:main.c        **** #include "comtest.h"
  81:main.c        **** /*---------------------------------------------------------------------------*/
  82:main.c        **** 
  83:main.c        **** /* The time between cycles of the 'check' functionality (defined within the
  84:main.c        **** tick hook. */
  85:main.c        **** #define mainCHECK_DELAY						( ( TickType_t ) 5000 / portTICK_PERIOD_MS )
  86:main.c        **** #define mainCOM_LED							( 3 )
  87:main.c        **** 
  88:main.c        **** /* The number of nano seconds between each processor clock. */
ARM GAS  C:\Users\NGGMLGM\AppData\Local\Temp\ccgCoeGO.s 			page 3


  89:main.c        **** #define mainNS_PER_CLOCK ( ( unsigned long ) ( ( 1.0 / ( double ) configCPU_CLOCK_HZ ) * 1000000000
  90:main.c        **** 
  91:main.c        **** /* Task priorities. */
  92:main.c        **** #define mainCOM_TEST_TASK_PRIORITY			( tskIDLE_PRIORITY + 1 )
  93:main.c        **** /*---------------------------------------------------------------------------*/
  94:main.c        **** 
  95:main.c        **** 
  96:main.c        **** /*
  97:main.c        ****  * Installs the RTOS interrupt handlers and starts the peripherals.
  98:main.c        ****  */
  99:main.c        **** static void prvHardwareSetup( void );
 100:main.c        **** /*---------------------------------------------------------------------------*/
 101:main.c        **** 
 102:main.c        **** void main( void )
 103:main.c        **** {
  27              		.loc 1 103 0
  28              		.cfi_startproc
  29              		@ args = 0, pretend = 0, frame = 0
  30              		@ frame_needed = 1, uses_anonymous_args = 0
  31 0000 80B5     		push	{r7, lr}
  32              		.cfi_def_cfa_offset 8
  33              		.cfi_offset 7, -8
  34              		.cfi_offset 14, -4
  35 0002 00AF     		add	r7, sp, #0
  36              		.cfi_def_cfa_register 7
 104:main.c        ****     /* Place your initialization/startup code here (e.g. MyInst_Start()) */
 105:main.c        **** 	prvHardwareSetup();
  37              		.loc 1 105 0
  38 0004 FFF7FEFF 		bl	prvHardwareSetup
 106:main.c        **** 
 107:main.c        **** 	vAltStartComTestTasks( mainCOM_TEST_TASK_PRIORITY, 9600, mainCOM_LED );
  39              		.loc 1 107 0
  40 0008 0120     		movs	r0, #1
  41 000a 4FF41651 		mov	r1, #9600
  42 000e 0322     		movs	r2, #3
  43 0010 FFF7FEFF 		bl	vAltStartComTestTasks
 108:main.c        **** 
 109:main.c        **** 	/* Will only get here if there was insufficient memory to create the idle
 110:main.c        ****     task.  The idle task is created within vTaskStartScheduler(). */
 111:main.c        **** 	vTaskStartScheduler();
  44              		.loc 1 111 0
  45 0014 FFF7FEFF 		bl	vTaskStartScheduler
  46              	.L2:
 112:main.c        **** 
 113:main.c        **** 	/* Should never reach here as the kernel will now be running.  If
 114:main.c        **** 	vTaskStartScheduler() does return then it is very likely that there was
 115:main.c        **** 	insufficient (FreeRTOS) heap space available to create all the tasks,
 116:main.c        **** 	including the idle task that is created within vTaskStartScheduler() itself. */
 117:main.c        **** 	for( ;; );
  47              		.loc 1 117 0 discriminator 1
  48 0018 FEE7     		b	.L2
  49              		.cfi_endproc
  50              	.LFE68:
  51              		.size	main, .-main
  52 001a 00BF     		.section	.text.prvHardwareSetup,"ax",%progbits
  53              		.align	2
  54              		.thumb
ARM GAS  C:\Users\NGGMLGM\AppData\Local\Temp\ccgCoeGO.s 			page 4


  55              		.thumb_func
  56              		.type	prvHardwareSetup, %function
  57              	prvHardwareSetup:
  58              	.LFB69:
 118:main.c        **** }
 119:main.c        **** /*---------------------------------------------------------------------------*/
 120:main.c        **** 
 121:main.c        **** void prvHardwareSetup( void )
 122:main.c        **** {
  59              		.loc 1 122 0
  60              		.cfi_startproc
  61              		@ args = 0, pretend = 0, frame = 0
  62              		@ frame_needed = 1, uses_anonymous_args = 0
  63 0000 80B5     		push	{r7, lr}
  64              		.cfi_def_cfa_offset 8
  65              		.cfi_offset 7, -8
  66              		.cfi_offset 14, -4
  67 0002 00AF     		add	r7, sp, #0
  68              		.cfi_def_cfa_register 7
 123:main.c        **** /* Port layer functions that need to be copied into the vector table. */
 124:main.c        **** extern void xPortPendSVHandler( void );
 125:main.c        **** extern void xPortSysTickHandler( void );
 126:main.c        **** extern void vPortSVCHandler( void );
 127:main.c        **** extern cyisraddress CyRamVectors[];
 128:main.c        **** 
 129:main.c        **** 	/* Install the OS Interrupt Handlers. */
 130:main.c        **** 	CyRamVectors[ 11 ] = ( cyisraddress ) vPortSVCHandler;
  69              		.loc 1 130 0
  70 0004 074B     		ldr	r3, .L4
  71 0006 084A     		ldr	r2, .L4+4
  72 0008 DA62     		str	r2, [r3, #44]
 131:main.c        **** 	CyRamVectors[ 14 ] = ( cyisraddress ) xPortPendSVHandler;
  73              		.loc 1 131 0
  74 000a 064B     		ldr	r3, .L4
  75 000c 074A     		ldr	r2, .L4+8
  76 000e 9A63     		str	r2, [r3, #56]
 132:main.c        **** 	CyRamVectors[ 15 ] = ( cyisraddress ) xPortSysTickHandler;
  77              		.loc 1 132 0
  78 0010 044B     		ldr	r3, .L4
  79 0012 074A     		ldr	r2, .L4+12
  80 0014 DA63     		str	r2, [r3, #60]
 133:main.c        **** 
 134:main.c        **** 	/* Start-up the peripherals. */
 135:main.c        **** 
 136:main.c        **** 	/* Start the UART. */
 137:main.c        **** 	UART_Start();
  81              		.loc 1 137 0
  82 0016 FFF7FEFF 		bl	UART_Start
 138:main.c        ****     
 139:main.c        ****     pwmClock_Start();
  83              		.loc 1 139 0
  84 001a FFF7FEFF 		bl	pwmClock_Start
 140:main.c        ****     servoPWM_Start();
  85              		.loc 1 140 0
  86 001e FFF7FEFF 		bl	servoPWM_Start
 141:main.c        **** 
 142:main.c        **** }
ARM GAS  C:\Users\NGGMLGM\AppData\Local\Temp\ccgCoeGO.s 			page 5


  87              		.loc 1 142 0
  88 0022 80BD     		pop	{r7, pc}
  89              	.L5:
  90              		.align	2
  91              	.L4:
  92 0024 00000000 		.word	CyRamVectors
  93 0028 00000000 		.word	vPortSVCHandler
  94 002c 00000000 		.word	xPortPendSVHandler
  95 0030 00000000 		.word	xPortSysTickHandler
  96              		.cfi_endproc
  97              	.LFE69:
  98              		.size	prvHardwareSetup, .-prvHardwareSetup
  99              		.section	.text.vApplicationStackOverflowHook,"ax",%progbits
 100              		.align	2
 101              		.global	vApplicationStackOverflowHook
 102              		.thumb
 103              		.thumb_func
 104              		.type	vApplicationStackOverflowHook, %function
 105              	vApplicationStackOverflowHook:
 106              	.LFB70:
 143:main.c        **** /*---------------------------------------------------------------------------*/
 144:main.c        **** 
 145:main.c        **** void vApplicationStackOverflowHook( TaskHandle_t pxTask, char *pcTaskName )
 146:main.c        **** {
 107              		.loc 1 146 0
 108              		.cfi_startproc
 109              		@ args = 0, pretend = 0, frame = 16
 110              		@ frame_needed = 1, uses_anonymous_args = 0
 111              		@ link register save eliminated.
 112 0000 80B4     		push	{r7}
 113              		.cfi_def_cfa_offset 4
 114              		.cfi_offset 7, -4
 115 0002 85B0     		sub	sp, sp, #20
 116              		.cfi_def_cfa_offset 24
 117 0004 00AF     		add	r7, sp, #0
 118              		.cfi_def_cfa_register 7
 119 0006 7860     		str	r0, [r7, #4]
 120 0008 3960     		str	r1, [r7]
 121              	.LBB6:
 122              	.LBB7:
 123              		.file 2 "../../../Source/portable/GCC/ARM_CM3/portmacro.h"
   1:../../../Source/portable/GCC/ARM_CM3/portmacro.h **** /*
   2:../../../Source/portable/GCC/ARM_CM3/portmacro.h ****     FreeRTOS V9.0.0rc2 - Copyright (C) 2016 Real Time Engineers Ltd.
   3:../../../Source/portable/GCC/ARM_CM3/portmacro.h ****     All rights reserved
   4:../../../Source/portable/GCC/ARM_CM3/portmacro.h **** 
   5:../../../Source/portable/GCC/ARM_CM3/portmacro.h ****     VISIT http://www.FreeRTOS.org TO ENSURE YOU ARE USING THE LATEST VERSION.
   6:../../../Source/portable/GCC/ARM_CM3/portmacro.h **** 
   7:../../../Source/portable/GCC/ARM_CM3/portmacro.h ****     This file is part of the FreeRTOS distribution.
   8:../../../Source/portable/GCC/ARM_CM3/portmacro.h **** 
   9:../../../Source/portable/GCC/ARM_CM3/portmacro.h ****     FreeRTOS is free software; you can redistribute it and/or modify it under
  10:../../../Source/portable/GCC/ARM_CM3/portmacro.h ****     the terms of the GNU General Public License (version 2) as published by the
  11:../../../Source/portable/GCC/ARM_CM3/portmacro.h ****     Free Software Foundation >>>> AND MODIFIED BY <<<< the FreeRTOS exception.
  12:../../../Source/portable/GCC/ARM_CM3/portmacro.h **** 
  13:../../../Source/portable/GCC/ARM_CM3/portmacro.h ****     ***************************************************************************
  14:../../../Source/portable/GCC/ARM_CM3/portmacro.h ****     >>!   NOTE: The modification to the GPL is included to allow you to     !<<
  15:../../../Source/portable/GCC/ARM_CM3/portmacro.h ****     >>!   distribute a combined work that includes FreeRTOS without being   !<<
  16:../../../Source/portable/GCC/ARM_CM3/portmacro.h ****     >>!   obliged to provide the source code for proprietary components     !<<
ARM GAS  C:\Users\NGGMLGM\AppData\Local\Temp\ccgCoeGO.s 			page 6


  17:../../../Source/portable/GCC/ARM_CM3/portmacro.h ****     >>!   outside of the FreeRTOS kernel.                                   !<<
  18:../../../Source/portable/GCC/ARM_CM3/portmacro.h ****     ***************************************************************************
  19:../../../Source/portable/GCC/ARM_CM3/portmacro.h **** 
  20:../../../Source/portable/GCC/ARM_CM3/portmacro.h ****     FreeRTOS is distributed in the hope that it will be useful, but WITHOUT ANY
  21:../../../Source/portable/GCC/ARM_CM3/portmacro.h ****     WARRANTY; without even the implied warranty of MERCHANTABILITY or FITNESS
  22:../../../Source/portable/GCC/ARM_CM3/portmacro.h ****     FOR A PARTICULAR PURPOSE.  Full license text is available on the following
  23:../../../Source/portable/GCC/ARM_CM3/portmacro.h ****     link: http://www.freertos.org/a00114.html
  24:../../../Source/portable/GCC/ARM_CM3/portmacro.h **** 
  25:../../../Source/portable/GCC/ARM_CM3/portmacro.h ****     ***************************************************************************
  26:../../../Source/portable/GCC/ARM_CM3/portmacro.h ****      *                                                                       *
  27:../../../Source/portable/GCC/ARM_CM3/portmacro.h ****      *    FreeRTOS provides completely free yet professionally developed,    *
  28:../../../Source/portable/GCC/ARM_CM3/portmacro.h ****      *    robust, strictly quality controlled, supported, and cross          *
  29:../../../Source/portable/GCC/ARM_CM3/portmacro.h ****      *    platform software that is more than just the market leader, it     *
  30:../../../Source/portable/GCC/ARM_CM3/portmacro.h ****      *    is the industry's de facto standard.                               *
  31:../../../Source/portable/GCC/ARM_CM3/portmacro.h ****      *                                                                       *
  32:../../../Source/portable/GCC/ARM_CM3/portmacro.h ****      *    Help yourself get started quickly while simultaneously helping     *
  33:../../../Source/portable/GCC/ARM_CM3/portmacro.h ****      *    to support the FreeRTOS project by purchasing a FreeRTOS           *
  34:../../../Source/portable/GCC/ARM_CM3/portmacro.h ****      *    tutorial book, reference manual, or both:                          *
  35:../../../Source/portable/GCC/ARM_CM3/portmacro.h ****      *    http://www.FreeRTOS.org/Documentation                              *
  36:../../../Source/portable/GCC/ARM_CM3/portmacro.h ****      *                                                                       *
  37:../../../Source/portable/GCC/ARM_CM3/portmacro.h ****     ***************************************************************************
  38:../../../Source/portable/GCC/ARM_CM3/portmacro.h **** 
  39:../../../Source/portable/GCC/ARM_CM3/portmacro.h ****     http://www.FreeRTOS.org/FAQHelp.html - Having a problem?  Start by reading
  40:../../../Source/portable/GCC/ARM_CM3/portmacro.h ****     the FAQ page "My application does not run, what could be wrong?".  Have you
  41:../../../Source/portable/GCC/ARM_CM3/portmacro.h ****     defined configASSERT()?
  42:../../../Source/portable/GCC/ARM_CM3/portmacro.h **** 
  43:../../../Source/portable/GCC/ARM_CM3/portmacro.h ****     http://www.FreeRTOS.org/support - In return for receiving this top quality
  44:../../../Source/portable/GCC/ARM_CM3/portmacro.h ****     embedded software for free we request you assist our global community by
  45:../../../Source/portable/GCC/ARM_CM3/portmacro.h ****     participating in the support forum.
  46:../../../Source/portable/GCC/ARM_CM3/portmacro.h **** 
  47:../../../Source/portable/GCC/ARM_CM3/portmacro.h ****     http://www.FreeRTOS.org/training - Investing in training allows your team to
  48:../../../Source/portable/GCC/ARM_CM3/portmacro.h ****     be as productive as possible as early as possible.  Now you can receive
  49:../../../Source/portable/GCC/ARM_CM3/portmacro.h ****     FreeRTOS training directly from Richard Barry, CEO of Real Time Engineers
  50:../../../Source/portable/GCC/ARM_CM3/portmacro.h ****     Ltd, and the world's leading authority on the world's leading RTOS.
  51:../../../Source/portable/GCC/ARM_CM3/portmacro.h **** 
  52:../../../Source/portable/GCC/ARM_CM3/portmacro.h ****     http://www.FreeRTOS.org/plus - A selection of FreeRTOS ecosystem products,
  53:../../../Source/portable/GCC/ARM_CM3/portmacro.h ****     including FreeRTOS+Trace - an indispensable productivity tool, a DOS
  54:../../../Source/portable/GCC/ARM_CM3/portmacro.h ****     compatible FAT file system, and our tiny thread aware UDP/IP stack.
  55:../../../Source/portable/GCC/ARM_CM3/portmacro.h **** 
  56:../../../Source/portable/GCC/ARM_CM3/portmacro.h ****     http://www.FreeRTOS.org/labs - Where new FreeRTOS products go to incubate.
  57:../../../Source/portable/GCC/ARM_CM3/portmacro.h ****     Come and try FreeRTOS+TCP, our new open source TCP/IP stack for FreeRTOS.
  58:../../../Source/portable/GCC/ARM_CM3/portmacro.h **** 
  59:../../../Source/portable/GCC/ARM_CM3/portmacro.h ****     http://www.OpenRTOS.com - Real Time Engineers ltd. license FreeRTOS to High
  60:../../../Source/portable/GCC/ARM_CM3/portmacro.h ****     Integrity Systems ltd. to sell under the OpenRTOS brand.  Low cost OpenRTOS
  61:../../../Source/portable/GCC/ARM_CM3/portmacro.h ****     licenses offer ticketed support, indemnification and commercial middleware.
  62:../../../Source/portable/GCC/ARM_CM3/portmacro.h **** 
  63:../../../Source/portable/GCC/ARM_CM3/portmacro.h ****     http://www.SafeRTOS.com - High Integrity Systems also provide a safety
  64:../../../Source/portable/GCC/ARM_CM3/portmacro.h ****     engineered and independently SIL3 certified version for use in safety and
  65:../../../Source/portable/GCC/ARM_CM3/portmacro.h ****     mission critical applications that require provable dependability.
  66:../../../Source/portable/GCC/ARM_CM3/portmacro.h **** 
  67:../../../Source/portable/GCC/ARM_CM3/portmacro.h ****     1 tab == 4 spaces!
  68:../../../Source/portable/GCC/ARM_CM3/portmacro.h **** */
  69:../../../Source/portable/GCC/ARM_CM3/portmacro.h **** 
  70:../../../Source/portable/GCC/ARM_CM3/portmacro.h **** 
  71:../../../Source/portable/GCC/ARM_CM3/portmacro.h **** #ifndef PORTMACRO_H
  72:../../../Source/portable/GCC/ARM_CM3/portmacro.h **** #define PORTMACRO_H
  73:../../../Source/portable/GCC/ARM_CM3/portmacro.h **** 
ARM GAS  C:\Users\NGGMLGM\AppData\Local\Temp\ccgCoeGO.s 			page 7


  74:../../../Source/portable/GCC/ARM_CM3/portmacro.h **** #ifdef __cplusplus
  75:../../../Source/portable/GCC/ARM_CM3/portmacro.h **** extern "C" {
  76:../../../Source/portable/GCC/ARM_CM3/portmacro.h **** #endif
  77:../../../Source/portable/GCC/ARM_CM3/portmacro.h **** 
  78:../../../Source/portable/GCC/ARM_CM3/portmacro.h **** /*-----------------------------------------------------------
  79:../../../Source/portable/GCC/ARM_CM3/portmacro.h ****  * Port specific definitions.
  80:../../../Source/portable/GCC/ARM_CM3/portmacro.h ****  *
  81:../../../Source/portable/GCC/ARM_CM3/portmacro.h ****  * The settings in this file configure FreeRTOS correctly for the
  82:../../../Source/portable/GCC/ARM_CM3/portmacro.h ****  * given hardware and compiler.
  83:../../../Source/portable/GCC/ARM_CM3/portmacro.h ****  *
  84:../../../Source/portable/GCC/ARM_CM3/portmacro.h ****  * These settings should not be altered.
  85:../../../Source/portable/GCC/ARM_CM3/portmacro.h ****  *-----------------------------------------------------------
  86:../../../Source/portable/GCC/ARM_CM3/portmacro.h ****  */
  87:../../../Source/portable/GCC/ARM_CM3/portmacro.h **** 
  88:../../../Source/portable/GCC/ARM_CM3/portmacro.h **** /* Type definitions. */
  89:../../../Source/portable/GCC/ARM_CM3/portmacro.h **** #define portCHAR		char
  90:../../../Source/portable/GCC/ARM_CM3/portmacro.h **** #define portFLOAT		float
  91:../../../Source/portable/GCC/ARM_CM3/portmacro.h **** #define portDOUBLE		double
  92:../../../Source/portable/GCC/ARM_CM3/portmacro.h **** #define portLONG		long
  93:../../../Source/portable/GCC/ARM_CM3/portmacro.h **** #define portSHORT		short
  94:../../../Source/portable/GCC/ARM_CM3/portmacro.h **** #define portSTACK_TYPE	uint32_t
  95:../../../Source/portable/GCC/ARM_CM3/portmacro.h **** #define portBASE_TYPE	long
  96:../../../Source/portable/GCC/ARM_CM3/portmacro.h **** 
  97:../../../Source/portable/GCC/ARM_CM3/portmacro.h **** typedef portSTACK_TYPE StackType_t;
  98:../../../Source/portable/GCC/ARM_CM3/portmacro.h **** typedef long BaseType_t;
  99:../../../Source/portable/GCC/ARM_CM3/portmacro.h **** typedef unsigned long UBaseType_t;
 100:../../../Source/portable/GCC/ARM_CM3/portmacro.h **** 
 101:../../../Source/portable/GCC/ARM_CM3/portmacro.h **** #if( configUSE_16_BIT_TICKS == 1 )
 102:../../../Source/portable/GCC/ARM_CM3/portmacro.h **** 	typedef uint16_t TickType_t;
 103:../../../Source/portable/GCC/ARM_CM3/portmacro.h **** 	#define portMAX_DELAY ( TickType_t ) 0xffff
 104:../../../Source/portable/GCC/ARM_CM3/portmacro.h **** #else
 105:../../../Source/portable/GCC/ARM_CM3/portmacro.h **** 	typedef uint32_t TickType_t;
 106:../../../Source/portable/GCC/ARM_CM3/portmacro.h **** 	#define portMAX_DELAY ( TickType_t ) 0xffffffffUL
 107:../../../Source/portable/GCC/ARM_CM3/portmacro.h **** 
 108:../../../Source/portable/GCC/ARM_CM3/portmacro.h **** 	/* 32-bit tick type on a 32-bit architecture, so reads of the tick count do
 109:../../../Source/portable/GCC/ARM_CM3/portmacro.h **** 	not need to be guarded with a critical section. */
 110:../../../Source/portable/GCC/ARM_CM3/portmacro.h **** 	#define portTICK_TYPE_IS_ATOMIC 1
 111:../../../Source/portable/GCC/ARM_CM3/portmacro.h **** #endif
 112:../../../Source/portable/GCC/ARM_CM3/portmacro.h **** /*-----------------------------------------------------------*/
 113:../../../Source/portable/GCC/ARM_CM3/portmacro.h **** 
 114:../../../Source/portable/GCC/ARM_CM3/portmacro.h **** /* Architecture specifics. */
 115:../../../Source/portable/GCC/ARM_CM3/portmacro.h **** #define portSTACK_GROWTH			( -1 )
 116:../../../Source/portable/GCC/ARM_CM3/portmacro.h **** #define portTICK_PERIOD_MS			( ( TickType_t ) 1000 / configTICK_RATE_HZ )
 117:../../../Source/portable/GCC/ARM_CM3/portmacro.h **** #define portBYTE_ALIGNMENT			8
 118:../../../Source/portable/GCC/ARM_CM3/portmacro.h **** /*-----------------------------------------------------------*/
 119:../../../Source/portable/GCC/ARM_CM3/portmacro.h **** 
 120:../../../Source/portable/GCC/ARM_CM3/portmacro.h **** /* Scheduler utilities. */
 121:../../../Source/portable/GCC/ARM_CM3/portmacro.h **** #define portYIELD() 															\
 122:../../../Source/portable/GCC/ARM_CM3/portmacro.h **** {																				\
 123:../../../Source/portable/GCC/ARM_CM3/portmacro.h **** 	/* Set a PendSV to request a context switch. */								\
 124:../../../Source/portable/GCC/ARM_CM3/portmacro.h **** 	portNVIC_INT_CTRL_REG = portNVIC_PENDSVSET_BIT;								\
 125:../../../Source/portable/GCC/ARM_CM3/portmacro.h **** 																				\
 126:../../../Source/portable/GCC/ARM_CM3/portmacro.h **** 	/* Barriers are normally not required but do ensure the code is completely	\
 127:../../../Source/portable/GCC/ARM_CM3/portmacro.h **** 	within the specified behaviour for the architecture. */						\
 128:../../../Source/portable/GCC/ARM_CM3/portmacro.h **** 	__asm volatile( "dsb" );													\
 129:../../../Source/portable/GCC/ARM_CM3/portmacro.h **** 	__asm volatile( "isb" );													\
 130:../../../Source/portable/GCC/ARM_CM3/portmacro.h **** }
ARM GAS  C:\Users\NGGMLGM\AppData\Local\Temp\ccgCoeGO.s 			page 8


 131:../../../Source/portable/GCC/ARM_CM3/portmacro.h **** 
 132:../../../Source/portable/GCC/ARM_CM3/portmacro.h **** #define portNVIC_INT_CTRL_REG		( * ( ( volatile uint32_t * ) 0xe000ed04 ) )
 133:../../../Source/portable/GCC/ARM_CM3/portmacro.h **** #define portNVIC_PENDSVSET_BIT		( 1UL << 28UL )
 134:../../../Source/portable/GCC/ARM_CM3/portmacro.h **** #define portEND_SWITCHING_ISR( xSwitchRequired ) if( xSwitchRequired != pdFALSE ) portYIELD()
 135:../../../Source/portable/GCC/ARM_CM3/portmacro.h **** #define portYIELD_FROM_ISR( x ) portEND_SWITCHING_ISR( x )
 136:../../../Source/portable/GCC/ARM_CM3/portmacro.h **** /*-----------------------------------------------------------*/
 137:../../../Source/portable/GCC/ARM_CM3/portmacro.h **** 
 138:../../../Source/portable/GCC/ARM_CM3/portmacro.h **** /* Critical section management. */
 139:../../../Source/portable/GCC/ARM_CM3/portmacro.h **** extern void vPortEnterCritical( void );
 140:../../../Source/portable/GCC/ARM_CM3/portmacro.h **** extern void vPortExitCritical( void );
 141:../../../Source/portable/GCC/ARM_CM3/portmacro.h **** #define portSET_INTERRUPT_MASK_FROM_ISR()		ulPortRaiseBASEPRI()
 142:../../../Source/portable/GCC/ARM_CM3/portmacro.h **** #define portCLEAR_INTERRUPT_MASK_FROM_ISR(x)	vPortSetBASEPRI(x)
 143:../../../Source/portable/GCC/ARM_CM3/portmacro.h **** #define portDISABLE_INTERRUPTS()				vPortRaiseBASEPRI()
 144:../../../Source/portable/GCC/ARM_CM3/portmacro.h **** #define portENABLE_INTERRUPTS()					vPortSetBASEPRI(0)
 145:../../../Source/portable/GCC/ARM_CM3/portmacro.h **** #define portENTER_CRITICAL()					vPortEnterCritical()
 146:../../../Source/portable/GCC/ARM_CM3/portmacro.h **** #define portEXIT_CRITICAL()						vPortExitCritical()
 147:../../../Source/portable/GCC/ARM_CM3/portmacro.h **** 
 148:../../../Source/portable/GCC/ARM_CM3/portmacro.h **** /*-----------------------------------------------------------*/
 149:../../../Source/portable/GCC/ARM_CM3/portmacro.h **** 
 150:../../../Source/portable/GCC/ARM_CM3/portmacro.h **** /* Task function macros as described on the FreeRTOS.org WEB site.  These are
 151:../../../Source/portable/GCC/ARM_CM3/portmacro.h **** not necessary for to use this port.  They are defined so the common demo files
 152:../../../Source/portable/GCC/ARM_CM3/portmacro.h **** (which build with all the ports) will build. */
 153:../../../Source/portable/GCC/ARM_CM3/portmacro.h **** #define portTASK_FUNCTION_PROTO( vFunction, pvParameters ) void vFunction( void *pvParameters )
 154:../../../Source/portable/GCC/ARM_CM3/portmacro.h **** #define portTASK_FUNCTION( vFunction, pvParameters ) void vFunction( void *pvParameters )
 155:../../../Source/portable/GCC/ARM_CM3/portmacro.h **** /*-----------------------------------------------------------*/
 156:../../../Source/portable/GCC/ARM_CM3/portmacro.h **** 
 157:../../../Source/portable/GCC/ARM_CM3/portmacro.h **** /* Tickless idle/low power functionality. */
 158:../../../Source/portable/GCC/ARM_CM3/portmacro.h **** #ifndef portSUPPRESS_TICKS_AND_SLEEP
 159:../../../Source/portable/GCC/ARM_CM3/portmacro.h **** 	extern void vPortSuppressTicksAndSleep( TickType_t xExpectedIdleTime );
 160:../../../Source/portable/GCC/ARM_CM3/portmacro.h **** 	#define portSUPPRESS_TICKS_AND_SLEEP( xExpectedIdleTime ) vPortSuppressTicksAndSleep( xExpectedIdl
 161:../../../Source/portable/GCC/ARM_CM3/portmacro.h **** #endif
 162:../../../Source/portable/GCC/ARM_CM3/portmacro.h **** /*-----------------------------------------------------------*/
 163:../../../Source/portable/GCC/ARM_CM3/portmacro.h **** 
 164:../../../Source/portable/GCC/ARM_CM3/portmacro.h **** /* Architecture specific optimisations. */
 165:../../../Source/portable/GCC/ARM_CM3/portmacro.h **** #ifndef configUSE_PORT_OPTIMISED_TASK_SELECTION
 166:../../../Source/portable/GCC/ARM_CM3/portmacro.h **** 	#define configUSE_PORT_OPTIMISED_TASK_SELECTION 1
 167:../../../Source/portable/GCC/ARM_CM3/portmacro.h **** #endif
 168:../../../Source/portable/GCC/ARM_CM3/portmacro.h **** 
 169:../../../Source/portable/GCC/ARM_CM3/portmacro.h **** #if configUSE_PORT_OPTIMISED_TASK_SELECTION == 1
 170:../../../Source/portable/GCC/ARM_CM3/portmacro.h **** 
 171:../../../Source/portable/GCC/ARM_CM3/portmacro.h **** 	/* Generic helper function. */
 172:../../../Source/portable/GCC/ARM_CM3/portmacro.h **** 	__attribute__( ( always_inline ) ) static inline uint8_t ucPortCountLeadingZeros( uint32_t ulBitma
 173:../../../Source/portable/GCC/ARM_CM3/portmacro.h **** 	{
 174:../../../Source/portable/GCC/ARM_CM3/portmacro.h **** 	uint8_t ucReturn;
 175:../../../Source/portable/GCC/ARM_CM3/portmacro.h **** 
 176:../../../Source/portable/GCC/ARM_CM3/portmacro.h **** 		__asm volatile ( "clz %0, %1" : "=r" ( ucReturn ) : "r" ( ulBitmap ) );
 177:../../../Source/portable/GCC/ARM_CM3/portmacro.h **** 		return ucReturn;
 178:../../../Source/portable/GCC/ARM_CM3/portmacro.h **** 	}
 179:../../../Source/portable/GCC/ARM_CM3/portmacro.h **** 
 180:../../../Source/portable/GCC/ARM_CM3/portmacro.h **** 	/* Check the configuration. */
 181:../../../Source/portable/GCC/ARM_CM3/portmacro.h **** 	#if( configMAX_PRIORITIES > 32 )
 182:../../../Source/portable/GCC/ARM_CM3/portmacro.h **** 		#error configUSE_PORT_OPTIMISED_TASK_SELECTION can only be set to 1 when configMAX_PRIORITIES is 
 183:../../../Source/portable/GCC/ARM_CM3/portmacro.h **** 	#endif
 184:../../../Source/portable/GCC/ARM_CM3/portmacro.h **** 
 185:../../../Source/portable/GCC/ARM_CM3/portmacro.h **** 	/* Store/clear the ready priorities in a bit map. */
 186:../../../Source/portable/GCC/ARM_CM3/portmacro.h **** 	#define portRECORD_READY_PRIORITY( uxPriority, uxReadyPriorities ) ( uxReadyPriorities ) |= ( 1UL 
 187:../../../Source/portable/GCC/ARM_CM3/portmacro.h **** 	#define portRESET_READY_PRIORITY( uxPriority, uxReadyPriorities ) ( uxReadyPriorities ) &= ~( 1UL 
ARM GAS  C:\Users\NGGMLGM\AppData\Local\Temp\ccgCoeGO.s 			page 9


 188:../../../Source/portable/GCC/ARM_CM3/portmacro.h **** 
 189:../../../Source/portable/GCC/ARM_CM3/portmacro.h **** 	/*-----------------------------------------------------------*/
 190:../../../Source/portable/GCC/ARM_CM3/portmacro.h **** 
 191:../../../Source/portable/GCC/ARM_CM3/portmacro.h **** 	#define portGET_HIGHEST_PRIORITY( uxTopPriority, uxReadyPriorities ) uxTopPriority = ( 31UL - ( ui
 192:../../../Source/portable/GCC/ARM_CM3/portmacro.h **** 
 193:../../../Source/portable/GCC/ARM_CM3/portmacro.h **** #endif /* configUSE_PORT_OPTIMISED_TASK_SELECTION */
 194:../../../Source/portable/GCC/ARM_CM3/portmacro.h **** 
 195:../../../Source/portable/GCC/ARM_CM3/portmacro.h **** /*-----------------------------------------------------------*/
 196:../../../Source/portable/GCC/ARM_CM3/portmacro.h **** 
 197:../../../Source/portable/GCC/ARM_CM3/portmacro.h **** #ifdef configASSERT
 198:../../../Source/portable/GCC/ARM_CM3/portmacro.h **** 	void vPortValidateInterruptPriority( void );
 199:../../../Source/portable/GCC/ARM_CM3/portmacro.h **** 	#define portASSERT_IF_INTERRUPT_PRIORITY_INVALID() 	vPortValidateInterruptPriority()
 200:../../../Source/portable/GCC/ARM_CM3/portmacro.h **** #endif
 201:../../../Source/portable/GCC/ARM_CM3/portmacro.h **** 
 202:../../../Source/portable/GCC/ARM_CM3/portmacro.h **** /* portNOP() is not required by this port. */
 203:../../../Source/portable/GCC/ARM_CM3/portmacro.h **** #define portNOP()
 204:../../../Source/portable/GCC/ARM_CM3/portmacro.h **** 
 205:../../../Source/portable/GCC/ARM_CM3/portmacro.h **** #define portINLINE	__inline
 206:../../../Source/portable/GCC/ARM_CM3/portmacro.h **** 
 207:../../../Source/portable/GCC/ARM_CM3/portmacro.h **** #ifndef portFORCE_INLINE
 208:../../../Source/portable/GCC/ARM_CM3/portmacro.h **** 	#define portFORCE_INLINE inline __attribute__(( always_inline))
 209:../../../Source/portable/GCC/ARM_CM3/portmacro.h **** #endif
 210:../../../Source/portable/GCC/ARM_CM3/portmacro.h **** 
 211:../../../Source/portable/GCC/ARM_CM3/portmacro.h **** portFORCE_INLINE static BaseType_t xPortIsInsideInterrupt( void )
 212:../../../Source/portable/GCC/ARM_CM3/portmacro.h **** {
 213:../../../Source/portable/GCC/ARM_CM3/portmacro.h **** uint32_t ulCurrentInterrupt;
 214:../../../Source/portable/GCC/ARM_CM3/portmacro.h **** BaseType_t xReturn;
 215:../../../Source/portable/GCC/ARM_CM3/portmacro.h **** 
 216:../../../Source/portable/GCC/ARM_CM3/portmacro.h **** 	/* Obtain the number of the currently executing interrupt. */
 217:../../../Source/portable/GCC/ARM_CM3/portmacro.h **** 	__asm volatile( "mrs %0, ipsr" : "=r"( ulCurrentInterrupt ) );
 218:../../../Source/portable/GCC/ARM_CM3/portmacro.h **** 
 219:../../../Source/portable/GCC/ARM_CM3/portmacro.h **** 	if( ulCurrentInterrupt == 0 )
 220:../../../Source/portable/GCC/ARM_CM3/portmacro.h **** 	{
 221:../../../Source/portable/GCC/ARM_CM3/portmacro.h **** 		xReturn = pdFALSE;
 222:../../../Source/portable/GCC/ARM_CM3/portmacro.h **** 	}
 223:../../../Source/portable/GCC/ARM_CM3/portmacro.h **** 	else
 224:../../../Source/portable/GCC/ARM_CM3/portmacro.h **** 	{
 225:../../../Source/portable/GCC/ARM_CM3/portmacro.h **** 		xReturn = pdTRUE;
 226:../../../Source/portable/GCC/ARM_CM3/portmacro.h **** 	}
 227:../../../Source/portable/GCC/ARM_CM3/portmacro.h **** 
 228:../../../Source/portable/GCC/ARM_CM3/portmacro.h **** 	return xReturn;
 229:../../../Source/portable/GCC/ARM_CM3/portmacro.h **** }
 230:../../../Source/portable/GCC/ARM_CM3/portmacro.h **** 
 231:../../../Source/portable/GCC/ARM_CM3/portmacro.h **** /*-----------------------------------------------------------*/
 232:../../../Source/portable/GCC/ARM_CM3/portmacro.h **** 
 233:../../../Source/portable/GCC/ARM_CM3/portmacro.h **** portFORCE_INLINE static void vPortRaiseBASEPRI( void )
 234:../../../Source/portable/GCC/ARM_CM3/portmacro.h **** {
 235:../../../Source/portable/GCC/ARM_CM3/portmacro.h **** uint32_t ulNewBASEPRI;
 236:../../../Source/portable/GCC/ARM_CM3/portmacro.h **** 
 237:../../../Source/portable/GCC/ARM_CM3/portmacro.h **** 	__asm volatile
 124              		.loc 2 237 0
 125              	@ 237 "../../../Source/portable/GCC/ARM_CM3/portmacro.h" 1
 126 000a 4FF0A003 			mov r3, #160												
 127 000e 83F31188 		msr basepri, r3											
 128 0012 BFF36F8F 		isb														
 129 0016 BFF34F8F 		dsb														
 130              	
ARM GAS  C:\Users\NGGMLGM\AppData\Local\Temp\ccgCoeGO.s 			page 10


 131              	@ 0 "" 2
 132              		.thumb
 133 001a FB60     		str	r3, [r7, #12]
 134              	.L7:
 135              	.LBE7:
 136              	.LBE6:
 147:main.c        **** 	/* The stack space has been execeeded for a task, considering allocating more. */
 148:main.c        **** 	taskDISABLE_INTERRUPTS();
 149:main.c        **** 	for( ;; );
 137              		.loc 1 149 0 discriminator 1
 138 001c FEE7     		b	.L7
 139              		.cfi_endproc
 140              	.LFE70:
 141              		.size	vApplicationStackOverflowHook, .-vApplicationStackOverflowHook
 142 001e 00BF     		.section	.text.vApplicationMallocFailedHook,"ax",%progbits
 143              		.align	2
 144              		.global	vApplicationMallocFailedHook
 145              		.thumb
 146              		.thumb_func
 147              		.type	vApplicationMallocFailedHook, %function
 148              	vApplicationMallocFailedHook:
 149              	.LFB71:
 150:main.c        **** }
 151:main.c        **** /*---------------------------------------------------------------------------*/
 152:main.c        **** 
 153:main.c        **** void vApplicationMallocFailedHook( void )
 154:main.c        **** {
 150              		.loc 1 154 0
 151              		.cfi_startproc
 152              		@ args = 0, pretend = 0, frame = 8
 153              		@ frame_needed = 1, uses_anonymous_args = 0
 154              		@ link register save eliminated.
 155 0000 80B4     		push	{r7}
 156              		.cfi_def_cfa_offset 4
 157              		.cfi_offset 7, -4
 158 0002 83B0     		sub	sp, sp, #12
 159              		.cfi_def_cfa_offset 16
 160 0004 00AF     		add	r7, sp, #0
 161              		.cfi_def_cfa_register 7
 162              	.LBB8:
 163              	.LBB9:
 164              		.loc 2 237 0
 165              	@ 237 "../../../Source/portable/GCC/ARM_CM3/portmacro.h" 1
 166 0006 4FF0A003 			mov r3, #160												
 167 000a 83F31188 		msr basepri, r3											
 168 000e BFF36F8F 		isb														
 169 0012 BFF34F8F 		dsb														
 170              	
 171              	@ 0 "" 2
 172              		.thumb
 173 0016 7B60     		str	r3, [r7, #4]
 174              	.L9:
 175              	.LBE9:
 176              	.LBE8:
 155:main.c        **** 	/* The heap space has been execeeded. */
 156:main.c        **** 	taskDISABLE_INTERRUPTS();
 157:main.c        **** 	for( ;; );
ARM GAS  C:\Users\NGGMLGM\AppData\Local\Temp\ccgCoeGO.s 			page 11


 177              		.loc 1 157 0 discriminator 1
 178 0018 FEE7     		b	.L9
 179              		.cfi_endproc
 180              	.LFE71:
 181              		.size	vApplicationMallocFailedHook, .-vApplicationMallocFailedHook
 182 001a 00BF     		.text
 183              	.Letext0:
 184              		.file 3 "c:\\program files (x86)\\cypress\\psoc creator\\4.0\\psoc creator\\import\\gnu\\arm\\4.9.
 185              		.file 4 "c:\\program files (x86)\\cypress\\psoc creator\\4.0\\psoc creator\\import\\gnu\\arm\\4.9.
 186              		.file 5 "Generated_Source\\PSoC5/cytypes.h"
 187              		.file 6 "../../../Source/include/task.h"
 188              		.file 7 "Generated_Source\\PSoC5/core_cm3.h"